target datalayout = "e-m:e-p270:32:32-p271:32:32-p272:64:64-i64:64-i128:128-f80:128-n8:16:32:64-S128"
target triple = "x86_64-unknown-linux-gnu"

module asm ".section \22.export_symbol\22,\22a\22 ; __export_symbol_gcd: ; .asciz \22GPL\22 ; .asciz \22\22 ; .balign 8 ; .quad gcd ; .previous"

@__UNIQUE_ID___addressable_gcd3 = internal global ptr @gcd, section ".discard.addressable", align 8
@llvm.compiler.used = appending global [1 x ptr] [ptr @__UNIQUE_ID___addressable_gcd3], section "llvm.metadata"

; Function Attrs: fn_ret_thunk_extern mustprogress nofree nosync nounwind null_pointer_is_valid willreturn memory(none)
define dso_local i64 @gcd(i64 noundef %0, i64 noundef %1) #0 align 16 {
  %3 = or i64 %1, %0
  %4 = icmp ne i64 %0, 0
  %5 = icmp ne i64 %1, 0
  %6 = and i1 %4, %5
  br i1 %6, label %7, label %32

7:                                                ; preds = %2
  %8 = tail call i64 asm "rep; bsf $1,$0", "=r,rm,~{dirflag},~{fpsr},~{flags}"(i64 %1) #2, !srcloc !5
  %9 = lshr i64 %1, %8
  %10 = icmp eq i64 %9, 1
  br i1 %10, label %11, label %14

11:                                               ; preds = %7
  %12 = sub i64 0, %3
  %13 = and i64 %3, %12
  br label %32

14:                                               ; preds = %28, %7
  %15 = phi i64 [ %31, %28 ], [ %0, %7 ]
  %16 = phi i64 [ %30, %28 ], [ %9, %7 ]
  %17 = tail call i64 asm "rep; bsf $1,$0", "=r,rm,~{dirflag},~{fpsr},~{flags}"(i64 %15) #2, !srcloc !5
  %18 = lshr i64 %15, %17
  %19 = icmp eq i64 %18, 1
  br i1 %19, label %20, label %23

20:                                               ; preds = %14
  %21 = sub i64 0, %3
  %22 = and i64 %3, %21
  br label %32

23:                                               ; preds = %14
  %24 = icmp eq i64 %18, %16
  br i1 %24, label %25, label %28

25:                                               ; preds = %23
  %26 = tail call i64 asm "rep; bsf $1,$0", "=r,rm,~{dirflag},~{fpsr},~{flags}"(i64 %3) #2, !srcloc !5
  %27 = shl i64 %18, %26
  br label %32

28:                                               ; preds = %23
  %29 = tail call i64 @llvm.umax.i64(i64 %18, i64 %16)
  %30 = tail call i64 @llvm.umin.i64(i64 %18, i64 %16)
  %31 = sub i64 %29, %30
  br label %14, !llvm.loop !6

32:                                               ; preds = %25, %20, %11, %2
  %33 = phi i64 [ %13, %11 ], [ %22, %20 ], [ %27, %25 ], [ %3, %2 ]
  ret i64 %33
}

; Function Attrs: nocallback nofree nosync nounwind speculatable willreturn memory(none)
declare i64 @llvm.umax.i64(i64, i64) #1

; Function Attrs: nocallback nofree nosync nounwind speculatable willreturn memory(none)
declare i64 @llvm.umin.i64(i64, i64) #1


!llvm.module.flags = !{!0, !1, !2, !3, !4}

!0 = !{i32 1, !"wchar_size", i32 2}
!1 = !{i32 8, !"cf-protection-branch", i32 1}
!2 = !{i32 4, !"function_return_thunk_extern", i32 1}
!3 = !{i32 4, !"indirect_branch_cs_prefix", i32 1}
!4 = !{i32 4, !"SkipRaxSetup", i32 1}
!5 = !{i64 293034}
!6 = distinct !{!6, !7}
!7 = !{!"llvm.loop.unroll.disable"}
